target datalayout = "e-m:e-p270:32:32-p271:32:32-p272:64:64-i64:64-i128:128-f80:128-n8:16:32:64-S128"
target triple = "x86_64-unknown-linux-gnu"

%"struct.OpenImageIO_v2_6_0::TypeDesc" = type { i8, i8, i8, i8, i32 }
%"class.std::__cxx11::basic_string" = type { %"struct.std::__cxx11::basic_string<char>::_Alloc_hider", i64, %union.anon.16 }
%"struct.std::__cxx11::basic_string<char>::_Alloc_hider" = type { ptr }
%union.anon.16 = type { i64, [8 x i8] }
%"class.fmt::v8::basic_string_view" = type { ptr, i64 }
%"class.fmt::v8::basic_format_args" = type { i64, %union.anon.25 }
%union.anon.25 = type { ptr }
%"struct.fmt::v8::detail::arg_data" = type { [1 x %"class.fmt::v8::detail::value"] }
%"class.fmt::v8::detail::value" = type { %union.anon.26 }
%union.anon.26 = type { i128 }
%"class.OpenImageIO_v2_6_0::ParamValue" = type <{ %"class.OpenImageIO_v2_6_0::ustring", %"struct.OpenImageIO_v2_6_0::TypeDesc", %union.anon.17, i32, i8, i8, i8, i8 }>
%"class.OpenImageIO_v2_6_0::ustring" = type { ptr }
%union.anon.17 = type { ptr, [8 x i8] }
%"struct.fmt::v8::detail::arg_mapper" = type { i8 }
%"class.fmt::v8::format_arg_store" = type { %"struct.fmt::v8::detail::arg_data" }

@.str.141 = private unnamed_addr constant [7 x i8] c"{:g} s\00", align 1
@.str.142 = private unnamed_addr constant [9 x i8] c"1/{:g} s\00", align 1

; Function Attrs: mustprogress uwtable
define linkonce_odr hidden { i64, i64 } @_ZN3fmt2v816make_format_argsINS0_20basic_format_contextINS0_8appenderEcEEJRdEEENS0_16format_arg_storeIT_JDpNSt9remove_cvINSt16remove_referenceIT0_E4typeEE4typeEEEEDpOSA_(ptr noundef nonnull align 8 dereferenceable(8) %args) #6 comdat {
entry:
  %this.addr.i11 = alloca ptr, align 8
  %val.addr.i12 = alloca double, align 8
  %this.addr.i8 = alloca ptr, align 8
  %val.addr.i9 = alloca double, align 8
  %this.addr.i6 = alloca ptr, align 8
  %.addr.i = alloca ptr, align 8
  %.addr1.i = alloca i32, align 4
  %.addr2.i = alloca i32, align 4
  %.addr3.i = alloca ptr, align 8
  %this.addr.i4 = alloca ptr, align 8
  %init.addr.i = alloca ptr, align 8
  %retval.i = alloca %"class.fmt::v8::detail::value", align 16
  %val.addr.i = alloca ptr, align 8
  %arg.i = alloca ptr, align 8
  %ref.tmp.i2 = alloca double, align 8
  %ref.tmp1.i = alloca %"struct.fmt::v8::detail::arg_mapper", align 1
  %formattable_char.i = alloca i8, align 1
  %formattable_const.i = alloca i8, align 1
  %formattable_pointer.i = alloca i8, align 1
  %formattable.i = alloca i8, align 1
  %this.addr.i = alloca ptr, align 8
  %args.addr.i = alloca ptr, align 8
  %ref.tmp.i = alloca %"class.fmt::v8::detail::value", align 16
  %retval = alloca %"class.fmt::v8::format_arg_store", align 16
  %args.addr = alloca ptr, align 8
  store ptr %args, ptr %args.addr, align 8
  %0 = load ptr, ptr %args.addr, align 8
  store ptr %retval, ptr %this.addr.i, align 8
  store ptr %0, ptr %args.addr.i, align 8
  %this1.i = load ptr, ptr %this.addr.i, align 8
  %1 = load ptr, ptr %args.addr.i, align 8
  store ptr %1, ptr %val.addr.i, align 8
  %2 = load ptr, ptr %val.addr.i, align 8
  %3 = load double, ptr %2, align 8
  store ptr %ref.tmp1.i, ptr %this.addr.i8, align 8
  store double %3, ptr %val.addr.i9, align 8
  %4 = load double, ptr %val.addr.i9, align 8
  store double %4, ptr %ref.tmp.i2, align 8
  store ptr %ref.tmp.i2, ptr %arg.i, align 8
  store i8 1, ptr %formattable_char.i, align 1
  store i8 1, ptr %formattable_const.i, align 1
  store i8 1, ptr %formattable_pointer.i, align 1
  store i8 1, ptr %formattable.i, align 1
  %5 = load ptr, ptr %arg.i, align 8
  %6 = load double, ptr %5, align 8
  store ptr %retval.i, ptr %this.addr.i11, align 8
  store double %6, ptr %val.addr.i12, align 8
  %this1.i13 = load ptr, ptr %this.addr.i11, align 8
  %7 = load double, ptr %val.addr.i12, align 8
  store double %7, ptr %this1.i13, align 16
  %8 = load { i64, i64 }, ptr %retval.i, align 16
  %9 = extractvalue { i64, i64 } %8, 0
  store i64 %9, ptr %ref.tmp.i, align 16
  %10 = getelementptr inbounds { i64, i64 }, ptr %ref.tmp.i, i32 0, i32 1
  %11 = extractvalue { i64, i64 } %8, 1
  store i64 %11, ptr %10, align 8
  store ptr %this1.i, ptr %this.addr.i4, align 8
  store ptr %ref.tmp.i, ptr %init.addr.i, align 8
  %this1.i5 = load ptr, ptr %this.addr.i4, align 8
  %12 = load ptr, ptr %init.addr.i, align 8
  call void @llvm.memcpy.p0.p0.i64(ptr align 16 %this1.i5, ptr align 16 %12, i64 16, i1 false)
  store ptr %this1.i, ptr %this.addr.i6, align 8
  %13 = load ptr, ptr %args.addr.i, align 8
  store ptr null, ptr %.addr.i, align 8
  store i32 0, ptr %.addr1.i, align 4
  store i32 0, ptr %.addr2.i, align 4
  store ptr %13, ptr %.addr3.i, align 8
  %coerce.dive = getelementptr inbounds %"class.fmt::v8::format_arg_store", ptr %retval, i32 0, i32 0
  %coerce.dive1 = getelementptr inbounds %"struct.fmt::v8::detail::arg_data", ptr %coerce.dive, i32 0, i32 0
  %14 = load { i64, i64 }, ptr %coerce.dive1, align 16
  ret { i64, i64 } %14
}

; Function Attrs: mustprogress nounwind uwtable
define linkonce_odr noundef i64 @_ZNSt11char_traitsIcE6lengthEPKc(ptr noundef %__s) #4 comdat align 2 {
entry:
  %__s.addr = alloca ptr, align 8
  store ptr %__s, ptr %__s.addr, align 8
  %0 = load ptr, ptr %__s.addr, align 8
  %call = call i64 @strlen(ptr noundef %0) #3
  ret i64 %call
}

; Function Attrs: mustprogress nounwind uwtable
define linkonce_odr noundef zeroext i1 @_ZNK18OpenImageIO_v2_6_08TypeDesc8is_arrayEv(ptr noundef nonnull align 4 dereferenceable(8) %this) #4 comdat align 2 {
entry:
  %this.addr = alloca ptr, align 8
  store ptr %this, ptr %this.addr, align 8
  %this1 = load ptr, ptr %this.addr, align 8
  %arraylen = getelementptr inbounds %"struct.OpenImageIO_v2_6_0::TypeDesc", ptr %this1, i32 0, i32 4
  %0 = load i32, ptr %arraylen, align 4
  %cmp = icmp ne i32 %0, 0
  ret i1 %cmp
}

; Function Attrs: mustprogress nounwind uwtable
define linkonce_odr void @_ZN18OpenImageIO_v2_6_08TypeDescC2ERKS0_(ptr noundef nonnull align 4 dereferenceable(8) %this, ptr noundef nonnull align 4 dereferenceable(8) %t) unnamed_addr #4 comdat align 2 {
entry:
  %this.addr = alloca ptr, align 8
  %t.addr = alloca ptr, align 8
  store ptr %this, ptr %this.addr, align 8
  store ptr %t, ptr %t.addr, align 8
  %this1 = load ptr, ptr %this.addr, align 8
  %basetype = getelementptr inbounds %"struct.OpenImageIO_v2_6_0::TypeDesc", ptr %this1, i32 0, i32 0
  %0 = load ptr, ptr %t.addr, align 8
  %basetype2 = getelementptr inbounds %"struct.OpenImageIO_v2_6_0::TypeDesc", ptr %0, i32 0, i32 0
  %1 = load i8, ptr %basetype2, align 4
  store i8 %1, ptr %basetype, align 4
  %aggregate = getelementptr inbounds %"struct.OpenImageIO_v2_6_0::TypeDesc", ptr %this1, i32 0, i32 1
  %2 = load ptr, ptr %t.addr, align 8
  %aggregate3 = getelementptr inbounds %"struct.OpenImageIO_v2_6_0::TypeDesc", ptr %2, i32 0, i32 1
  %3 = load i8, ptr %aggregate3, align 1
  store i8 %3, ptr %aggregate, align 1
  %vecsemantics = getelementptr inbounds %"struct.OpenImageIO_v2_6_0::TypeDesc", ptr %this1, i32 0, i32 2
  %4 = load ptr, ptr %t.addr, align 8
  %vecsemantics4 = getelementptr inbounds %"struct.OpenImageIO_v2_6_0::TypeDesc", ptr %4, i32 0, i32 2
  %5 = load i8, ptr %vecsemantics4, align 2
  store i8 %5, ptr %vecsemantics, align 2
  %reserved = getelementptr inbounds %"struct.OpenImageIO_v2_6_0::TypeDesc", ptr %this1, i32 0, i32 3
  store i8 0, ptr %reserved, align 1
  %arraylen = getelementptr inbounds %"struct.OpenImageIO_v2_6_0::TypeDesc", ptr %this1, i32 0, i32 4
  %6 = load ptr, ptr %t.addr, align 8
  %arraylen5 = getelementptr inbounds %"struct.OpenImageIO_v2_6_0::TypeDesc", ptr %6, i32 0, i32 4
  %7 = load i32, ptr %arraylen5, align 4
  store i32 %7, ptr %arraylen, align 4
  ret void
}

; Function Attrs: mustprogress uwtable
define linkonce_odr hidden void @_ZN18OpenImageIO_v2_6_07Strutil3fmt6formatIA9_cJdEEENSt7__cxx1112basic_stringIcSt11char_traitsIcESaIcEEERKT_DpOT0_(ptr noalias sret(%"class.std::__cxx11::basic_string") align 8 %agg.result, ptr noundef nonnull align 1 dereferenceable(9) %fmt, ptr noundef nonnull align 8 dereferenceable(8) %args) #6 comdat {
entry:
  %this.addr.i8 = alloca ptr, align 8
  %desc.addr.i = alloca i64, align 8
  %values.addr.i = alloca ptr, align 8
  %this.addr.i6 = alloca ptr, align 8
  %this.addr.i3 = alloca ptr, align 8
  %store.addr.i = alloca ptr, align 8
  %this.addr.i = alloca ptr, align 8
  %s.addr.i = alloca ptr, align 8
  %result.ptr = alloca ptr, align 8
  %fmt.addr = alloca ptr, align 8
  %args.addr = alloca ptr, align 8
  %agg.tmp = alloca %"class.fmt::v8::basic_string_view", align 8
  %agg.tmp1 = alloca %"class.fmt::v8::basic_format_args", align 8
  %ref.tmp = alloca %"class.fmt::v8::format_arg_store", align 16
  store ptr %agg.result, ptr %result.ptr, align 8
  store ptr %fmt, ptr %fmt.addr, align 8
  store ptr %args, ptr %args.addr, align 8
  %0 = load ptr, ptr %fmt.addr, align 8
  %arraydecay = getelementptr inbounds [9 x i8], ptr %0, i64 0, i64 0
  store ptr %agg.tmp, ptr %this.addr.i, align 8
  store ptr %arraydecay, ptr %s.addr.i, align 8
  %this1.i = load ptr, ptr %this.addr.i, align 8
  %1 = load ptr, ptr %s.addr.i, align 8
  store ptr %1, ptr %this1.i, align 8
  %size_.i = getelementptr inbounds %"class.fmt::v8::basic_string_view", ptr %this1.i, i32 0, i32 1
  %2 = load ptr, ptr %s.addr.i, align 8
  %call.i = call noundef i64 @_ZNSt11char_traitsIcE6lengthEPKc(ptr noundef %2)
  store i64 %call.i, ptr %size_.i, align 8
  %3 = load ptr, ptr %args.addr, align 8
  %call = call { i64, i64 } @_ZN3fmt2v816make_format_argsINS0_20basic_format_contextINS0_8appenderEcEEJRdEEENS0_16format_arg_storeIT_JDpNSt9remove_cvINSt16remove_referenceIT0_E4typeEE4typeEEEEDpOSA_(ptr noundef nonnull align 8 dereferenceable(8) %3)
  %coerce.dive = getelementptr inbounds %"class.fmt::v8::format_arg_store", ptr %ref.tmp, i32 0, i32 0
  %coerce.dive2 = getelementptr inbounds %"struct.fmt::v8::detail::arg_data", ptr %coerce.dive, i32 0, i32 0
  %4 = getelementptr inbounds { i64, i64 }, ptr %coerce.dive2, i32 0, i32 0
  %5 = extractvalue { i64, i64 } %call, 0
  store i64 %5, ptr %4, align 16
  %6 = getelementptr inbounds { i64, i64 }, ptr %coerce.dive2, i32 0, i32 1
  %7 = extractvalue { i64, i64 } %call, 1
  store i64 %7, ptr %6, align 8
  store ptr %agg.tmp1, ptr %this.addr.i3, align 8
  store ptr %ref.tmp, ptr %store.addr.i, align 8
  %this1.i4 = load ptr, ptr %this.addr.i3, align 8
  %8 = load ptr, ptr %store.addr.i, align 8
  store ptr %8, ptr %this.addr.i6, align 8
  %this1.i7 = load ptr, ptr %this.addr.i6, align 8
  store ptr %this1.i4, ptr %this.addr.i8, align 8
  store i64 10, ptr %desc.addr.i, align 8
  store ptr %this1.i7, ptr %values.addr.i, align 8
  %this1.i9 = load ptr, ptr %this.addr.i8, align 8
  %9 = load i64, ptr %desc.addr.i, align 8
  store i64 %9, ptr %this1.i9, align 8
  %10 = getelementptr inbounds %"class.fmt::v8::basic_format_args", ptr %this1.i9, i32 0, i32 1
  %11 = load ptr, ptr %values.addr.i, align 8
  store ptr %11, ptr %10, align 8
  %12 = getelementptr inbounds { ptr, i64 }, ptr %agg.tmp, i32 0, i32 0
  %13 = load ptr, ptr %12, align 8
  %14 = getelementptr inbounds { ptr, i64 }, ptr %agg.tmp, i32 0, i32 1
  %15 = load i64, ptr %14, align 8
  %16 = getelementptr inbounds { i64, ptr }, ptr %agg.tmp1, i32 0, i32 0
  %17 = load i64, ptr %16, align 8
  %18 = getelementptr inbounds { i64, ptr }, ptr %agg.tmp1, i32 0, i32 1
  %19 = load ptr, ptr %18, align 8
  call void @_ZN3fmt2v87vformatB5cxx11ENS0_17basic_string_viewIcEENS0_17basic_format_argsINS0_20basic_format_contextINS0_8appenderEcEEEE(ptr sret(%"class.std::__cxx11::basic_string") align 8 %agg.result, ptr %13, i64 %15, i64 %17, ptr %19)
  ret void
}

; Function Attrs: mustprogress uwtable
define linkonce_odr hidden void @_ZN18OpenImageIO_v2_6_07Strutil3fmt6formatIA7_cJRdEEENSt7__cxx1112basic_stringIcSt11char_traitsIcESaIcEEERKT_DpOT0_(ptr noalias sret(%"class.std::__cxx11::basic_string") align 8 %agg.result, ptr noundef nonnull align 1 dereferenceable(7) %fmt, ptr noundef nonnull align 8 dereferenceable(8) %args) #6 comdat {
entry:
  %this.addr.i8 = alloca ptr, align 8
  %desc.addr.i = alloca i64, align 8
  %values.addr.i = alloca ptr, align 8
  %this.addr.i6 = alloca ptr, align 8
  %this.addr.i3 = alloca ptr, align 8
  %store.addr.i = alloca ptr, align 8
  %this.addr.i = alloca ptr, align 8
  %s.addr.i = alloca ptr, align 8
  %result.ptr = alloca ptr, align 8
  %fmt.addr = alloca ptr, align 8
  %args.addr = alloca ptr, align 8
  %agg.tmp = alloca %"class.fmt::v8::basic_string_view", align 8
  %agg.tmp1 = alloca %"class.fmt::v8::basic_format_args", align 8
  %ref.tmp = alloca %"class.fmt::v8::format_arg_store", align 16
  store ptr %agg.result, ptr %result.ptr, align 8
  store ptr %fmt, ptr %fmt.addr, align 8
  store ptr %args, ptr %args.addr, align 8
  %0 = load ptr, ptr %fmt.addr, align 8
  %arraydecay = getelementptr inbounds [7 x i8], ptr %0, i64 0, i64 0
  store ptr %agg.tmp, ptr %this.addr.i, align 8
  store ptr %arraydecay, ptr %s.addr.i, align 8
  %this1.i = load ptr, ptr %this.addr.i, align 8
  %1 = load ptr, ptr %s.addr.i, align 8
  store ptr %1, ptr %this1.i, align 8
  %size_.i = getelementptr inbounds %"class.fmt::v8::basic_string_view", ptr %this1.i, i32 0, i32 1
  %2 = load ptr, ptr %s.addr.i, align 8
  %call.i = call noundef i64 @_ZNSt11char_traitsIcE6lengthEPKc(ptr noundef %2)
  store i64 %call.i, ptr %size_.i, align 8
  %3 = load ptr, ptr %args.addr, align 8
  %call = call { i64, i64 } @_ZN3fmt2v816make_format_argsINS0_20basic_format_contextINS0_8appenderEcEEJRdEEENS0_16format_arg_storeIT_JDpNSt9remove_cvINSt16remove_referenceIT0_E4typeEE4typeEEEEDpOSA_(ptr noundef nonnull align 8 dereferenceable(8) %3)
  %coerce.dive = getelementptr inbounds %"class.fmt::v8::format_arg_store", ptr %ref.tmp, i32 0, i32 0
  %coerce.dive2 = getelementptr inbounds %"struct.fmt::v8::detail::arg_data", ptr %coerce.dive, i32 0, i32 0
  %4 = getelementptr inbounds { i64, i64 }, ptr %coerce.dive2, i32 0, i32 0
  %5 = extractvalue { i64, i64 } %call, 0
  store i64 %5, ptr %4, align 16
  %6 = getelementptr inbounds { i64, i64 }, ptr %coerce.dive2, i32 0, i32 1
  %7 = extractvalue { i64, i64 } %call, 1
  store i64 %7, ptr %6, align 8
  store ptr %agg.tmp1, ptr %this.addr.i3, align 8
  store ptr %ref.tmp, ptr %store.addr.i, align 8
  %this1.i4 = load ptr, ptr %this.addr.i3, align 8
  %8 = load ptr, ptr %store.addr.i, align 8
  store ptr %8, ptr %this.addr.i6, align 8
  %this1.i7 = load ptr, ptr %this.addr.i6, align 8
  store ptr %this1.i4, ptr %this.addr.i8, align 8
  store i64 10, ptr %desc.addr.i, align 8
  store ptr %this1.i7, ptr %values.addr.i, align 8
  %this1.i9 = load ptr, ptr %this.addr.i8, align 8
  %9 = load i64, ptr %desc.addr.i, align 8
  store i64 %9, ptr %this1.i9, align 8
  %10 = getelementptr inbounds %"class.fmt::v8::basic_format_args", ptr %this1.i9, i32 0, i32 1
  %11 = load ptr, ptr %values.addr.i, align 8
  store ptr %11, ptr %10, align 8
  %12 = getelementptr inbounds { ptr, i64 }, ptr %agg.tmp, i32 0, i32 0
  %13 = load ptr, ptr %12, align 8
  %14 = getelementptr inbounds { ptr, i64 }, ptr %agg.tmp, i32 0, i32 1
  %15 = load i64, ptr %14, align 8
  %16 = getelementptr inbounds { i64, ptr }, ptr %agg.tmp1, i32 0, i32 0
  %17 = load i64, ptr %16, align 8
  %18 = getelementptr inbounds { i64, ptr }, ptr %agg.tmp1, i32 0, i32 1
  %19 = load ptr, ptr %18, align 8
  call void @_ZN3fmt2v87vformatB5cxx11ENS0_17basic_string_viewIcEENS0_17basic_format_argsINS0_20basic_format_contextINS0_8appenderEcEEEE(ptr sret(%"class.std::__cxx11::basic_string") align 8 %agg.result, ptr %13, i64 %15, i64 %17, ptr %19)
  ret void
}

; Function Attrs: mustprogress nounwind uwtable
define linkonce_odr noundef ptr @_ZNK18OpenImageIO_v2_6_010ParamValue4dataEv(ptr noundef nonnull align 8 dereferenceable(39) %this) #4 comdat align 2 {
entry:
  %this.addr = alloca ptr, align 8
  store ptr %this, ptr %this.addr, align 8
  %this1 = load ptr, ptr %this.addr, align 8
  %m_nonlocal = getelementptr inbounds %"class.OpenImageIO_v2_6_0::ParamValue", ptr %this1, i32 0, i32 6
  %0 = load i8, ptr %m_nonlocal, align 2
  %tobool = trunc i8 %0 to i1
  br i1 %tobool, label %cond.true, label %cond.false

cond.true:                                        ; preds = %entry
  %m_data = getelementptr inbounds %"class.OpenImageIO_v2_6_0::ParamValue", ptr %this1, i32 0, i32 2
  %1 = load ptr, ptr %m_data, align 8
  br label %cond.end

cond.false:                                       ; preds = %entry
  %m_data2 = getelementptr inbounds %"class.OpenImageIO_v2_6_0::ParamValue", ptr %this1, i32 0, i32 2
  br label %cond.end

cond.end:                                         ; preds = %cond.false, %cond.true
  %cond = phi ptr [ %1, %cond.true ], [ %m_data2, %cond.false ]
  ret ptr %cond
}

; Function Attrs: mustprogress nounwind uwtable
define linkonce_odr hidden noundef zeroext i1 @_ZN18OpenImageIO_v2_6_0eqERKNS_8TypeDescENS0_8BASETYPEE(ptr noundef nonnull align 4 dereferenceable(8) %t, i32 noundef %b) #4 comdat {
entry:
  %t.addr = alloca ptr, align 8
  %b.addr = alloca i32, align 4
  store ptr %t, ptr %t.addr, align 8
  store i32 %b, ptr %b.addr, align 4
  %0 = load ptr, ptr %t.addr, align 8
  %basetype = getelementptr inbounds %"struct.OpenImageIO_v2_6_0::TypeDesc", ptr %0, i32 0, i32 0
  %1 = load i8, ptr %basetype, align 4
  %conv = zext i8 %1 to i32
  %2 = load i32, ptr %b.addr, align 4
  %cmp = icmp eq i32 %conv, %2
  br i1 %cmp, label %land.lhs.true, label %land.end

land.lhs.true:                                    ; preds = %entry
  %3 = load ptr, ptr %t.addr, align 8
  %aggregate = getelementptr inbounds %"struct.OpenImageIO_v2_6_0::TypeDesc", ptr %3, i32 0, i32 1
  %4 = load i8, ptr %aggregate, align 1
  %conv1 = zext i8 %4 to i32
  %cmp2 = icmp eq i32 %conv1, 1
  br i1 %cmp2, label %land.rhs, label %land.end

land.rhs:                                         ; preds = %land.lhs.true
  %5 = load ptr, ptr %t.addr, align 8
  %call = call noundef zeroext i1 @_ZNK18OpenImageIO_v2_6_08TypeDesc8is_arrayEv(ptr noundef nonnull align 4 dereferenceable(8) %5) #3
  %lnot = xor i1 %call, true
  br label %land.end

land.end:                                         ; preds = %land.rhs, %land.lhs.true, %entry
  %6 = phi i1 [ false, %land.lhs.true ], [ false, %entry ], [ %lnot, %land.rhs ]
  ret i1 %6
}

; Function Attrs: mustprogress nounwind uwtable
define linkonce_odr void @_ZNK18OpenImageIO_v2_6_010ParamValue4typeEv(ptr noalias sret(%"struct.OpenImageIO_v2_6_0::TypeDesc") align 4 %agg.result, ptr noundef nonnull align 8 dereferenceable(39) %this) #4 comdat align 2 {
entry:
  %result.ptr = alloca ptr, align 8
  %this.addr = alloca ptr, align 8
  store ptr %agg.result, ptr %result.ptr, align 8
  store ptr %this, ptr %this.addr, align 8
  %this1 = load ptr, ptr %this.addr, align 8
  %m_type = getelementptr inbounds %"class.OpenImageIO_v2_6_0::ParamValue", ptr %this1, i32 0, i32 1
  call void @_ZN18OpenImageIO_v2_6_08TypeDescC2ERKS0_(ptr noundef nonnull align 4 dereferenceable(8) %agg.result, ptr noundef nonnull align 4 dereferenceable(8) %m_type) #3
  ret void
}

; Function Attrs: mustprogress uwtable
define internal void @_ZN18OpenImageIO_v2_6_012_GLOBAL__N_119explain_shutterapexB5cxx11ERKNS_10ParamValueEPKv(ptr noalias sret(%"class.std::__cxx11::basic_string") align 8 %agg.result, ptr noundef nonnull align 8 dereferenceable(39) %p, ptr noundef %0) #6 {
entry:
  %result.ptr = alloca ptr, align 8
  %p.addr = alloca ptr, align 8
  %.addr = alloca ptr, align 8
  %ref.tmp = alloca %"struct.OpenImageIO_v2_6_0::TypeDesc", align 4
  %val = alloca double, align 8
  %ref.tmp3 = alloca double, align 8
  store ptr %agg.result, ptr %result.ptr, align 8
  store ptr %p, ptr %p.addr, align 8
  store ptr %0, ptr %.addr, align 8
  %1 = load ptr, ptr %p.addr, align 8
  call void @_ZNK18OpenImageIO_v2_6_010ParamValue4typeEv(ptr sret(%"struct.OpenImageIO_v2_6_0::TypeDesc") align 4 %ref.tmp, ptr noundef nonnull align 8 dereferenceable(39) %1) #3
  %call = call noundef zeroext i1 @_ZN18OpenImageIO_v2_6_0eqERKNS_8TypeDescENS0_8BASETYPEE(ptr noundef nonnull align 4 dereferenceable(8) %ref.tmp, i32 noundef 11) #3
  br i1 %call, label %if.then, label %if.end

if.then:                                          ; preds = %entry
  %2 = load ptr, ptr %p.addr, align 8
  %call1 = call noundef ptr @_ZNK18OpenImageIO_v2_6_010ParamValue4dataEv(ptr noundef nonnull align 8 dereferenceable(39) %2) #3
  %3 = load float, ptr %call1, align 4
  %conv = fpext float %3 to double
  %fneg = fneg double %conv
  %4 = call double @llvm.pow.f64(double 2.000000e+00, double %fneg)
  store double %4, ptr %val, align 8
  %5 = load double, ptr %val, align 8
  %cmp = fcmp ogt double %5, 1.000000e+00
  br i1 %cmp, label %if.then2, label %if.else

if.then2:                                         ; preds = %if.then
  call void @_ZN18OpenImageIO_v2_6_07Strutil3fmt6formatIA7_cJRdEEENSt7__cxx1112basic_stringIcSt11char_traitsIcESaIcEEERKT_DpOT0_(ptr sret(%"class.std::__cxx11::basic_string") align 8 %agg.result, ptr noundef nonnull align 1 dereferenceable(7) @.str.141, ptr noundef nonnull align 8 dereferenceable(8) %val)
  br label %return

if.else:                                          ; preds = %if.then
  %6 = load double, ptr %val, align 8
  %div = fdiv double 1.000000e+00, %6
  %7 = call double @llvm.floor.f64(double %div)
  store double %7, ptr %ref.tmp3, align 8
  call void @_ZN18OpenImageIO_v2_6_07Strutil3fmt6formatIA9_cJdEEENSt7__cxx1112basic_stringIcSt11char_traitsIcESaIcEEERKT_DpOT0_(ptr sret(%"class.std::__cxx11::basic_string") align 8 %agg.result, ptr noundef nonnull align 1 dereferenceable(9) @.str.142, ptr noundef nonnull align 8 dereferenceable(8) %ref.tmp3)
  br label %return

if.end:                                           ; preds = %entry
  call void @_ZNSt7__cxx1112basic_stringIcSt11char_traitsIcESaIcEEC1Ev(ptr noundef nonnull align 8 dereferenceable(32) %agg.result) #3
  br label %return

return:                                           ; preds = %if.end, %if.else, %if.then2
  ret void
}