; Function Attrs: mustprogress uwtable
define internal void @_ZN18OpenImageIO_v2_6_012_GLOBAL__N_119explain_shutterapexB5cxx11ERKNS_10ParamValueEPKv(ptr noalias sret(%"class.std::__cxx11::basic_string") align 8 %agg.result, ptr nocapture noundef nonnull readonly align 8 dereferenceable(39) %p, ptr nocapture readnone %0) #5 {
entry:
  %ref.tmp.i3 = alloca %"class.fmt::v8::format_arg_store", align 16
  %ref.tmp.i = alloca %"class.fmt::v8::format_arg_store", align 16
  %m_type.i = getelementptr inbounds i8, ptr %p, i64 8
  %1 = load i8, ptr %m_type.i, align 8, !noalias !213
  %aggregate3.i.i = getelementptr inbounds i8, ptr %p, i64 9
  %2 = load i8, ptr %aggregate3.i.i, align 1, !noalias !213
  %arraylen5.i.i = getelementptr inbounds i8, ptr %p, i64 12
  %3 = load i32, ptr %arraylen5.i.i, align 4, !noalias !213
  %cmp.i = icmp eq i8 %1, 11
  %cmp2.i = icmp eq i8 %2, 1
  %or.cond.i = select i1 %cmp.i, i1 %cmp2.i, i1 false
  %cmp.i.not.i = icmp eq i32 %3, 0
  %4 = select i1 %or.cond.i, i1 %cmp.i.not.i, i1 false
  br i1 %4, label %if.then, label %if.end

if.then:                                          ; preds = %entry
  %m_nonlocal.i = getelementptr inbounds i8, ptr %p, i64 38
  %5 = load i8, ptr %m_nonlocal.i, align 2
  %6 = and i8 %5, 1
  %tobool.not.i = icmp eq i8 %6, 0
  %m_data.i = getelementptr inbounds i8, ptr %p, i64 16
  %7 = load ptr, ptr %m_data.i, align 8
  %cond.i = select i1 %tobool.not.i, ptr %m_data.i, ptr %7
  %8 = load float, ptr %cond.i, align 4
  %conv = fpext float %8 to double
  %fneg = fneg double %conv
  %exp2 = tail call double @llvm.exp2.f64(double %fneg)
  %cmp = fcmp ogt double %exp2, 1.000000e+00
  br i1 %cmp, label %if.then2, label %if.else

if.then2:                                         ; preds = %if.then
  call void @llvm.lifetime.start.p0(i64 16, ptr nonnull %ref.tmp.i)
  store double %exp2, ptr %ref.tmp.i, align 16, !noalias !216
  call void @_ZN3fmt2v87vformatB5cxx11ENS0_17basic_string_viewIcEENS0_17basic_format_argsINS0_20basic_format_contextINS0_8appenderEcEEEE(ptr sret(%"class.std::__cxx11::basic_string") align 8 %agg.result, ptr nonnull @.str.141, i64 6, i64 10, ptr nonnull %ref.tmp.i)
  call void @llvm.lifetime.end.p0(i64 16, ptr nonnull %ref.tmp.i)
  br label %return

if.else:                                          ; preds = %if.then
  %div = fdiv double 1.000000e+00, %exp2
  %9 = tail call double @llvm.floor.f64(double %div)
  call void @llvm.lifetime.start.p0(i64 16, ptr nonnull %ref.tmp.i3)
  store double %9, ptr %ref.tmp.i3, align 16, !noalias !219
  call void @_ZN3fmt2v87vformatB5cxx11ENS0_17basic_string_viewIcEENS0_17basic_format_argsINS0_20basic_format_contextINS0_8appenderEcEEEE(ptr sret(%"class.std::__cxx11::basic_string") align 8 %agg.result, ptr nonnull @.str.142, i64 8, i64 10, ptr nonnull %ref.tmp.i3)
  call void @llvm.lifetime.end.p0(i64 16, ptr nonnull %ref.tmp.i3)
  br label %return

if.end:                                           ; preds = %entry
  tail call void @_ZNSt7__cxx1112basic_stringIcSt11char_traitsIcESaIcEEC1Ev(ptr noundef nonnull align 8 dereferenceable(32) %agg.result) #28
  br label %return

return:                                           ; preds = %if.end, %if.else, %if.then2
  ret void
}